target datalayout = "e-m:e-p270:32:32-p271:32:32-p272:64:64-i64:64-i128:128-f80:128-n8:16:32:64-S128"
target triple = "x86_64-pc-linux-gnu"

%struct.ObjectAddress = type { i32, i32, i32 }
%struct.ForEachState = type { ptr, i32 }
%struct.List = type { i32, i32, i32, ptr, [0 x %union.ListCell] }
%union.ListCell = type { ptr }
%struct.RelationData = type { %struct.RelFileLocator, ptr, i32, i32, i8, i8, i8, i8, i8, i32, i32, i32, i32, ptr, ptr, i32, %struct.LockInfoData, ptr, ptr, ptr, ptr, ptr, i8, ptr, ptr, ptr, ptr, ptr, ptr, i32, ptr, i8, ptr, ptr, i32, i8, i32, ptr, i8, ptr, ptr, ptr, ptr, ptr, ptr, ptr, i32, ptr, ptr, ptr, ptr, ptr, ptr, ptr, ptr, ptr, ptr, ptr, ptr, ptr, ptr, ptr, ptr, ptr, ptr, ptr, i32, i8, ptr }
%struct.RelFileLocator = type { i32, i32, i32 }
%struct.LockInfoData = type { %struct.LockRelId }
%struct.LockRelId = type { i32, i32 }

@object_access_hook = external global ptr, align 8

; Function Attrs: inlinehint nounwind uwtable
define internal i64 @PointerGetDatum(ptr noundef %0) #3 {
  %2 = alloca ptr, align 8
  store ptr %0, ptr %2, align 8
  %3 = load ptr, ptr %2, align 8
  %4 = ptrtoint ptr %3 to i64
  ret i64 %4
}

; Function Attrs: inlinehint nounwind uwtable
define internal i64 @BoolGetDatum(i1 noundef zeroext %0) #3 {
  %2 = alloca i8, align 1
  %3 = zext i1 %0 to i8
  store i8 %3, ptr %2, align 1
  %4 = load i8, ptr %2, align 1, !range !4, !noundef !5
  %5 = trunc i8 %4 to i1
  %6 = select i1 %5, i32 1, i32 0
  %7 = sext i32 %6 to i64
  ret i64 %7
}

; Function Attrs: inlinehint nounwind uwtable
define internal i64 @CStringGetDatum(ptr noundef %0) #3 {
  %2 = alloca ptr, align 8
  store ptr %0, ptr %2, align 8
  %3 = load ptr, ptr %2, align 8
  %4 = call i64 @PointerGetDatum(ptr noundef %3)
  ret i64 %4
}

; Function Attrs: inlinehint nounwind uwtable
define internal i64 @ObjectIdGetDatum(i32 noundef %0) #3 {
  %2 = alloca i32, align 4
  store i32 %0, ptr %2, align 4
  %3 = load i32, ptr %2, align 4
  %4 = zext i32 %3 to i64
  ret i64 %4
}

; Function Attrs: nounwind uwtable
define dso_local { i64, i32 } @InsertExtensionTuple(ptr noundef %0, i32 noundef %1, i32 noundef %2, i1 noundef zeroext %3, ptr noundef %4, i64 noundef %5, i64 noundef %6, ptr noundef %7) #0 {
  %9 = alloca %struct.ObjectAddress, align 4
  %10 = alloca ptr, align 8
  %11 = alloca i32, align 4
  %12 = alloca i32, align 4
  %13 = alloca i8, align 1
  %14 = alloca ptr, align 8
  %15 = alloca i64, align 8
  %16 = alloca i64, align 8
  %17 = alloca ptr, align 8
  %18 = alloca i32, align 4
  %19 = alloca ptr, align 8
  %20 = alloca [8 x i64], align 16
  %21 = alloca [8 x i8], align 1
  %22 = alloca ptr, align 8
  %23 = alloca %struct.ObjectAddress, align 4
  %24 = alloca ptr, align 8
  %25 = alloca ptr, align 8
  %26 = alloca %struct.ForEachState, align 8
  %27 = alloca i32, align 4
  %28 = alloca %struct.ObjectAddress, align 4
  %29 = alloca { i64, i32 }, align 8
  store ptr %0, ptr %10, align 8
  store i32 %1, ptr %11, align 4
  store i32 %2, ptr %12, align 4
  %30 = zext i1 %3 to i8
  store i8 %30, ptr %13, align 1
  store ptr %4, ptr %14, align 8
  store i64 %5, ptr %15, align 8
  store i64 %6, ptr %16, align 8
  store ptr %7, ptr %17, align 8
  call void @llvm.lifetime.start.p0(i64 4, ptr %18) #12
  call void @llvm.lifetime.start.p0(i64 8, ptr %19) #12
  call void @llvm.lifetime.start.p0(i64 64, ptr %20) #12
  call void @llvm.lifetime.start.p0(i64 8, ptr %21) #12
  call void @llvm.lifetime.start.p0(i64 8, ptr %22) #12
  call void @llvm.lifetime.start.p0(i64 12, ptr %23) #12
  call void @llvm.lifetime.start.p0(i64 8, ptr %24) #12
  call void @llvm.lifetime.start.p0(i64 8, ptr %25) #12
  %31 = call ptr @table_open(i32 noundef 3079, i32 noundef 3)
  store ptr %31, ptr %19, align 8
  %32 = getelementptr inbounds [8 x i64], ptr %20, i64 0, i64 0
  call void @llvm.memset.p0.i64(ptr align 16 %32, i8 0, i64 64, i1 false)
  %33 = getelementptr inbounds [8 x i8], ptr %21, i64 0, i64 0
  call void @llvm.memset.p0.i64(ptr align 1 %33, i8 0, i64 8, i1 false)
  %34 = load ptr, ptr %19, align 8
  %35 = call i32 @GetNewOidWithIndex(ptr noundef %34, i32 noundef 3080, i16 noundef signext 1)
  store i32 %35, ptr %18, align 4
  %36 = load i32, ptr %18, align 4
  %37 = call i64 @ObjectIdGetDatum(i32 noundef %36)
  %38 = getelementptr inbounds [8 x i64], ptr %20, i64 0, i64 0
  store i64 %37, ptr %38, align 16
  %39 = load ptr, ptr %10, align 8
  %40 = call i64 @CStringGetDatum(ptr noundef %39)
  %41 = call i64 @DirectFunctionCall1Coll(ptr noundef @namein, i32 noundef 0, i64 noundef %40)
  %42 = getelementptr inbounds [8 x i64], ptr %20, i64 0, i64 1
  store i64 %41, ptr %42, align 8
  %43 = load i32, ptr %11, align 4
  %44 = call i64 @ObjectIdGetDatum(i32 noundef %43)
  %45 = getelementptr inbounds [8 x i64], ptr %20, i64 0, i64 2
  store i64 %44, ptr %45, align 16
  %46 = load i32, ptr %12, align 4
  %47 = call i64 @ObjectIdGetDatum(i32 noundef %46)
  %48 = getelementptr inbounds [8 x i64], ptr %20, i64 0, i64 3
  store i64 %47, ptr %48, align 8
  %49 = load i8, ptr %13, align 1, !range !4, !noundef !5
  %50 = trunc i8 %49 to i1
  %51 = call i64 @BoolGetDatum(i1 noundef zeroext %50)
  %52 = getelementptr inbounds [8 x i64], ptr %20, i64 0, i64 4
  store i64 %51, ptr %52, align 16
  %53 = load ptr, ptr %14, align 8
  %54 = call ptr @cstring_to_text(ptr noundef %53)
  %55 = call i64 @PointerGetDatum(ptr noundef %54)
  %56 = getelementptr inbounds [8 x i64], ptr %20, i64 0, i64 5
  store i64 %55, ptr %56, align 8
  %57 = load i64, ptr %15, align 8
  %58 = call i64 @PointerGetDatum(ptr noundef null)
  %59 = icmp eq i64 %57, %58
  br i1 %59, label %60, label %62

60:                                               ; preds = %8
  %61 = getelementptr inbounds [8 x i8], ptr %21, i64 0, i64 6
  store i8 1, ptr %61, align 1
  br label %65

62:                                               ; preds = %8
  %63 = load i64, ptr %15, align 8
  %64 = getelementptr inbounds [8 x i64], ptr %20, i64 0, i64 6
  store i64 %63, ptr %64, align 16
  br label %65

65:                                               ; preds = %62, %60
  %66 = load i64, ptr %16, align 8
  %67 = call i64 @PointerGetDatum(ptr noundef null)
  %68 = icmp eq i64 %66, %67
  br i1 %68, label %69, label %71

69:                                               ; preds = %65
  %70 = getelementptr inbounds [8 x i8], ptr %21, i64 0, i64 7
  store i8 1, ptr %70, align 1
  br label %74

71:                                               ; preds = %65
  %72 = load i64, ptr %16, align 8
  %73 = getelementptr inbounds [8 x i64], ptr %20, i64 0, i64 7
  store i64 %72, ptr %73, align 8
  br label %74

74:                                               ; preds = %71, %69
  %75 = load ptr, ptr %19, align 8
  %76 = getelementptr inbounds nuw %struct.RelationData, ptr %75, i32 0, i32 14
  %77 = load ptr, ptr %76, align 8
  %78 = getelementptr inbounds [8 x i64], ptr %20, i64 0, i64 0
  %79 = getelementptr inbounds [8 x i8], ptr %21, i64 0, i64 0
  %80 = call ptr @heap_form_tuple(ptr noundef %77, ptr noundef %78, ptr noundef %79)
  store ptr %80, ptr %22, align 8
  %81 = load ptr, ptr %19, align 8
  %82 = load ptr, ptr %22, align 8
  call void @CatalogTupleInsert(ptr noundef %81, ptr noundef %82)
  %83 = load ptr, ptr %22, align 8
  call void @heap_freetuple(ptr noundef %83)
  %84 = load ptr, ptr %19, align 8
  call void @table_close(ptr noundef %84, i32 noundef 3)
  %85 = load i32, ptr %18, align 4
  %86 = load i32, ptr %11, align 4
  call void @recordDependencyOnOwner(i32 noundef 3079, i32 noundef %85, i32 noundef %86)
  %87 = call ptr @new_object_addresses()
  store ptr %87, ptr %24, align 8
  br label %88

88:                                               ; preds = %74
  %89 = getelementptr inbounds nuw %struct.ObjectAddress, ptr %9, i32 0, i32 0
  store i32 3079, ptr %89, align 4
  %90 = load i32, ptr %18, align 4
  %91 = getelementptr inbounds nuw %struct.ObjectAddress, ptr %9, i32 0, i32 1
  store i32 %90, ptr %91, align 4
  %92 = getelementptr inbounds nuw %struct.ObjectAddress, ptr %9, i32 0, i32 2
  store i32 0, ptr %92, align 4
  br label %93

93:                                               ; preds = %88
  br label %94

94:                                               ; preds = %93
  br label %95

95:                                               ; preds = %94
  %96 = getelementptr inbounds nuw %struct.ObjectAddress, ptr %23, i32 0, i32 0
  store i32 2615, ptr %96, align 4
  %97 = load i32, ptr %12, align 4
  %98 = getelementptr inbounds nuw %struct.ObjectAddress, ptr %23, i32 0, i32 1
  store i32 %97, ptr %98, align 4
  %99 = getelementptr inbounds nuw %struct.ObjectAddress, ptr %23, i32 0, i32 2
  store i32 0, ptr %99, align 4
  br label %100

100:                                              ; preds = %95
  br label %101

101:                                              ; preds = %100
  %102 = load ptr, ptr %24, align 8
  call void @add_exact_object_address(ptr noundef %23, ptr noundef %102)
  call void @llvm.lifetime.start.p0(i64 16, ptr %26) #12
  %103 = getelementptr inbounds nuw %struct.ForEachState, ptr %26, i32 0, i32 0
  %104 = load ptr, ptr %17, align 8
  store ptr %104, ptr %103, align 8
  %105 = getelementptr inbounds nuw %struct.ForEachState, ptr %26, i32 0, i32 1
  store i32 0, ptr %105, align 8
  %106 = getelementptr i8, ptr %26, i64 12
  call void @llvm.memset.p0.i64(ptr align 4 %106, i8 0, i64 4, i1 false)
  br label %107

107:                                              ; preds = %144, %101
  %108 = getelementptr inbounds nuw %struct.ForEachState, ptr %26, i32 0, i32 0
  %109 = load ptr, ptr %108, align 8
  %110 = icmp ne ptr %109, null
  br i1 %110, label %111, label %128

111:                                              ; preds = %107
  %112 = getelementptr inbounds nuw %struct.ForEachState, ptr %26, i32 0, i32 1
  %113 = load i32, ptr %112, align 8
  %114 = getelementptr inbounds nuw %struct.ForEachState, ptr %26, i32 0, i32 0
  %115 = load ptr, ptr %114, align 8
  %116 = getelementptr inbounds nuw %struct.List, ptr %115, i32 0, i32 1
  %117 = load i32, ptr %116, align 4
  %118 = icmp slt i32 %113, %117
  br i1 %118, label %119, label %128

119:                                              ; preds = %111
  %120 = getelementptr inbounds nuw %struct.ForEachState, ptr %26, i32 0, i32 0
  %121 = load ptr, ptr %120, align 8
  %122 = getelementptr inbounds nuw %struct.List, ptr %121, i32 0, i32 3
  %123 = load ptr, ptr %122, align 8
  %124 = getelementptr inbounds nuw %struct.ForEachState, ptr %26, i32 0, i32 1
  %125 = load i32, ptr %124, align 8
  %126 = sext i32 %125 to i64
  %127 = getelementptr inbounds %union.ListCell, ptr %123, i64 %126
  store ptr %127, ptr %25, align 8
  br label %129

128:                                              ; preds = %111, %107
  store ptr null, ptr %25, align 8
  br label %129

129:                                              ; preds = %128, %119
  %130 = phi i32 [ 1, %119 ], [ 0, %128 ]
  %131 = icmp ne i32 %130, 0
  br i1 %131, label %133, label %132

132:                                              ; preds = %129
  call void @llvm.lifetime.end.p0(i64 16, ptr %26) #12
  br label %148

133:                                              ; preds = %129
  call void @llvm.lifetime.start.p0(i64 4, ptr %27) #12
  %134 = load ptr, ptr %25, align 8
  %135 = load i32, ptr %134, align 8
  store i32 %135, ptr %27, align 4
  call void @llvm.lifetime.start.p0(i64 12, ptr %28) #12
  br label %136

136:                                              ; preds = %133
  %137 = getelementptr inbounds nuw %struct.ObjectAddress, ptr %28, i32 0, i32 0
  store i32 3079, ptr %137, align 4
  %138 = load i32, ptr %27, align 4
  %139 = getelementptr inbounds nuw %struct.ObjectAddress, ptr %28, i32 0, i32 1
  store i32 %138, ptr %139, align 4
  %140 = getelementptr inbounds nuw %struct.ObjectAddress, ptr %28, i32 0, i32 2
  store i32 0, ptr %140, align 4
  br label %141

141:                                              ; preds = %136
  br label %142

142:                                              ; preds = %141
  %143 = load ptr, ptr %24, align 8
  call void @add_exact_object_address(ptr noundef %28, ptr noundef %143)
  call void @llvm.lifetime.end.p0(i64 12, ptr %28) #12
  call void @llvm.lifetime.end.p0(i64 4, ptr %27) #12
  br label %144

144:                                              ; preds = %142
  %145 = getelementptr inbounds nuw %struct.ForEachState, ptr %26, i32 0, i32 1
  %146 = load i32, ptr %145, align 8
  %147 = add i32 %146, 1
  store i32 %147, ptr %145, align 8
  br label %107, !llvm.loop !9

148:                                              ; preds = %132
  %149 = load ptr, ptr %24, align 8
  call void @record_object_address_dependencies(ptr noundef %9, ptr noundef %149, i32 noundef 110)
  %150 = load ptr, ptr %24, align 8
  call void @free_object_addresses(ptr noundef %150)
  br label %151

151:                                              ; preds = %148
  %152 = load ptr, ptr @object_access_hook, align 8
  %153 = icmp ne ptr %152, null
  br i1 %153, label %154, label %156

154:                                              ; preds = %151
  %155 = load i32, ptr %18, align 4
  call void @RunObjectPostCreateHook(i32 noundef 3079, i32 noundef %155, i32 noundef 0, i1 noundef zeroext false)
  br label %156

156:                                              ; preds = %154, %151
  br label %157

157:                                              ; preds = %156
  br label %158

158:                                              ; preds = %157
  call void @llvm.lifetime.end.p0(i64 8, ptr %25) #12
  call void @llvm.lifetime.end.p0(i64 8, ptr %24) #12
  call void @llvm.lifetime.end.p0(i64 12, ptr %23) #12
  call void @llvm.lifetime.end.p0(i64 8, ptr %22) #12
  call void @llvm.lifetime.end.p0(i64 8, ptr %21) #12
  call void @llvm.lifetime.end.p0(i64 64, ptr %20) #12
  call void @llvm.lifetime.end.p0(i64 8, ptr %19) #12
  call void @llvm.lifetime.end.p0(i64 4, ptr %18) #12
  call void @llvm.memcpy.p0.p0.i64(ptr align 8 %29, ptr align 4 %9, i64 12, i1 false)
  %159 = load { i64, i32 }, ptr %29, align 8
  ret { i64, i32 } %159
}