; Function Attrs: nounwind uwtable
define dso_local { i64, i32 } @InsertExtensionTuple(ptr noundef %0, i32 noundef %1, i32 noundef %2, i1 noundef zeroext %3, ptr noundef %4, i64 noundef %5, i64 noundef %6, ptr noundef readonly captures(address_is_null) %7) local_unnamed_addr #0 {
  %9 = alloca %struct.ObjectAddress, align 8
  %10 = alloca [8 x i64], align 16
  %11 = alloca [8 x i8], align 8
  %12 = alloca %struct.ObjectAddress, align 4
  %13 = alloca %struct.ObjectAddress, align 4
  call void @llvm.lifetime.start.p0(i64 64, ptr nonnull %10) #15
  call void @llvm.lifetime.start.p0(i64 8, ptr nonnull %11) #15
  call void @llvm.lifetime.start.p0(i64 12, ptr nonnull %12) #15
  %14 = tail call ptr @table_open(i32 noundef 3079, i32 noundef 3) #15
  %15 = getelementptr inbounds nuw i8, ptr %10, i64 48
  call void @llvm.memset.p0.i64(ptr noundef nonnull align 16 dereferenceable(64) %15, i8 0, i64 16, i1 false)
  store i64 0, ptr %11, align 8
  %16 = tail call i32 @GetNewOidWithIndex(ptr noundef %14, i32 noundef 3080, i16 noundef signext 1) #15
  %17 = zext i32 %16 to i64
  store i64 %17, ptr %10, align 16
  %18 = ptrtoint ptr %0 to i64
  %19 = tail call i64 @DirectFunctionCall1Coll(ptr noundef nonnull @namein, i32 noundef 0, i64 noundef %18) #15
  %20 = getelementptr inbounds nuw i8, ptr %10, i64 8
  store i64 %19, ptr %20, align 8
  %21 = zext i32 %1 to i64
  %22 = getelementptr inbounds nuw i8, ptr %10, i64 16
  store i64 %21, ptr %22, align 16
  %23 = zext i32 %2 to i64
  %24 = getelementptr inbounds nuw i8, ptr %10, i64 24
  store i64 %23, ptr %24, align 8
  %25 = zext i1 %3 to i64
  %26 = getelementptr inbounds nuw i8, ptr %10, i64 32
  store i64 %25, ptr %26, align 16
  %27 = tail call ptr @cstring_to_text(ptr noundef %4) #15
  %28 = ptrtoint ptr %27 to i64
  %29 = getelementptr inbounds nuw i8, ptr %10, i64 40
  store i64 %28, ptr %29, align 8
  %30 = icmp eq i64 %5, 0
  br i1 %30, label %31, label %33

31:                                               ; preds = %8
  %32 = getelementptr inbounds nuw i8, ptr %11, i64 6
  store i8 1, ptr %32, align 2
  br label %35

33:                                               ; preds = %8
  %34 = getelementptr inbounds nuw i8, ptr %10, i64 48
  store i64 %5, ptr %34, align 16
  br label %35

35:                                               ; preds = %33, %31
  %36 = icmp eq i64 %6, 0
  br i1 %36, label %37, label %39

37:                                               ; preds = %35
  %38 = getelementptr inbounds nuw i8, ptr %11, i64 7
  store i8 1, ptr %38, align 1
  br label %41

39:                                               ; preds = %35
  %40 = getelementptr inbounds nuw i8, ptr %10, i64 56
  store i64 %6, ptr %40, align 8
  br label %41

41:                                               ; preds = %39, %37
  %42 = getelementptr inbounds nuw i8, ptr %14, i64 64
  %43 = load ptr, ptr %42, align 8
  %44 = call ptr @heap_form_tuple(ptr noundef %43, ptr noundef nonnull %10, ptr noundef nonnull %11) #15
  call void @CatalogTupleInsert(ptr noundef %14, ptr noundef %44) #15
  call void @heap_freetuple(ptr noundef %44) #15
  call void @table_close(ptr noundef %14, i32 noundef 3) #15
  call void @recordDependencyOnOwner(i32 noundef 3079, i32 noundef %16, i32 noundef %1) #15
  %45 = call ptr @new_object_addresses() #15
  store i32 3079, ptr %9, align 8
  %46 = getelementptr inbounds nuw i8, ptr %9, i64 4
  store i32 %16, ptr %46, align 4
  %47 = getelementptr inbounds nuw i8, ptr %9, i64 8
  store i32 0, ptr %47, align 8
  store i32 2615, ptr %12, align 4
  %48 = getelementptr inbounds nuw i8, ptr %12, i64 4
  store i32 %2, ptr %48, align 4
  %49 = getelementptr inbounds nuw i8, ptr %12, i64 8
  store i32 0, ptr %49, align 4
  call void @add_exact_object_address(ptr noundef nonnull %12, ptr noundef %45) #15
  %50 = getelementptr inbounds nuw i8, ptr %7, i64 4
  %.not = icmp eq ptr %7, null
  br i1 %.not, label %._crit_edge, label %.lr.ph

.lr.ph:                                           ; preds = %41
  %51 = getelementptr inbounds nuw i8, ptr %7, i64 16
  %52 = getelementptr inbounds nuw i8, ptr %13, i64 4
  %53 = getelementptr inbounds nuw i8, ptr %13, i64 8
  %54 = load i32, ptr %50, align 4
  %55 = icmp sgt i32 %54, 0
  br i1 %55, label %.lr.ph42, label %._crit_edge

._crit_edge:                                      ; preds = %.lr.ph42, %.lr.ph, %41
  call void @record_object_address_dependencies(ptr noundef nonnull %9, ptr noundef %45, i32 noundef 110) #15
  call void @free_object_addresses(ptr noundef %45) #15
  %56 = load ptr, ptr @object_access_hook, align 8
  %.not36 = icmp eq ptr %56, null
  br i1 %.not36, label %64, label %63

.lr.ph42:                                         ; preds = %.lr.ph, %.lr.ph42
  %indvars.iv = phi i64 [ %indvars.iv.next, %.lr.ph42 ], [ 0, %.lr.ph ]
  %57 = load ptr, ptr %51, align 8
  %58 = getelementptr inbounds nuw %union.ListCell, ptr %57, i64 %indvars.iv
  %59 = load i32, ptr %58, align 8
  call void @llvm.lifetime.start.p0(i64 12, ptr nonnull %13) #15
  store i32 3079, ptr %13, align 4
  store i32 %59, ptr %52, align 4
  store i32 0, ptr %53, align 4
  call void @add_exact_object_address(ptr noundef nonnull %13, ptr noundef %45) #15
  call void @llvm.lifetime.end.p0(i64 12, ptr nonnull %13) #15
  %indvars.iv.next = add nuw nsw i64 %indvars.iv, 1
  %60 = load i32, ptr %50, align 4
  %61 = sext i32 %60 to i64
  %62 = icmp slt i64 %indvars.iv.next, %61
  br i1 %62, label %.lr.ph42, label %._crit_edge

63:                                               ; preds = %._crit_edge
  call void @RunObjectPostCreateHook(i32 noundef 3079, i32 noundef %16, i32 noundef 0, i1 noundef zeroext false) #15
  br label %64

64:                                               ; preds = %63, %._crit_edge
  call void @llvm.lifetime.end.p0(i64 12, ptr nonnull %12) #15
  call void @llvm.lifetime.end.p0(i64 8, ptr nonnull %11) #15
  call void @llvm.lifetime.end.p0(i64 64, ptr nonnull %10) #15
  %.sroa.0.0.copyload = load i64, ptr %9, align 8
  %.sroa.2.0.copyload = load i32, ptr %47, align 8
  %.fca.0.insert = insertvalue { i64, i32 } poison, i64 %.sroa.0.0.copyload, 0
  %.fca.1.insert = insertvalue { i64, i32 } %.fca.0.insert, i32 %.sroa.2.0.copyload, 1
  ret { i64, i32 } %.fca.1.insert
}